target datalayout = "e-m:e-p270:32:32-p271:32:32-p272:64:64-i64:64-i128:128-f80:128-n8:16:32:64-S128"
target triple = "x86_64-pc-linux-gnu"

%struct.PartitionBoundInfoData = type { i32, i32, ptr, ptr, ptr, i32, ptr, i32, i32 }
%struct.FmgrInfo = type { ptr, i32, i16, i8, i8, i8, ptr, ptr, ptr }

; Function Attrs: inlinehint nounwind uwtable
define internal i32 @DatumGetInt32(i64 noundef %0) #5 {
  %2 = alloca i64, align 8
  store i64 %0, ptr %2, align 8
  %3 = load i64, ptr %2, align 8
  %4 = trunc i64 %3 to i32
  ret i32 %4
}

; Function Attrs: nounwind uwtable
define dso_local i32 @partition_rbound_datum_cmp(ptr noundef %0, ptr noundef %1, ptr noundef %2, ptr noundef %3, ptr noundef %4, i32 noundef %5) #0 {
  %7 = alloca i32, align 4
  %8 = alloca ptr, align 8
  %9 = alloca ptr, align 8
  %10 = alloca ptr, align 8
  %11 = alloca ptr, align 8
  %12 = alloca ptr, align 8
  %13 = alloca i32, align 4
  %14 = alloca i32, align 4
  %15 = alloca i32, align 4
  %16 = alloca i32, align 4
  store ptr %0, ptr %8, align 8
  store ptr %1, ptr %9, align 8
  store ptr %2, ptr %10, align 8
  store ptr %3, ptr %11, align 8
  store ptr %4, ptr %12, align 8
  store i32 %5, ptr %13, align 4
  call void @llvm.lifetime.start.p0(i64 4, ptr %14) #9
  call void @llvm.lifetime.start.p0(i64 4, ptr %15) #9
  store i32 -1, ptr %15, align 4
  store i32 0, ptr %14, align 4
  br label %17

17:                                               ; preds = %64, %6
  %18 = load i32, ptr %14, align 4
  %19 = load i32, ptr %13, align 4
  %20 = icmp slt i32 %18, %19
  br i1 %20, label %21, label %67

21:                                               ; preds = %17
  %22 = load ptr, ptr %11, align 8
  %23 = load i32, ptr %14, align 4
  %24 = sext i32 %23 to i64
  %25 = getelementptr inbounds i32, ptr %22, i64 %24
  %26 = load i32, ptr %25, align 4
  %27 = icmp eq i32 %26, -1
  br i1 %27, label %28, label %29

28:                                               ; preds = %21
  store i32 -1, ptr %7, align 4
  store i32 1, ptr %16, align 4
  br label %69

29:                                               ; preds = %21
  %30 = load ptr, ptr %11, align 8
  %31 = load i32, ptr %14, align 4
  %32 = sext i32 %31 to i64
  %33 = getelementptr inbounds i32, ptr %30, i64 %32
  %34 = load i32, ptr %33, align 4
  %35 = icmp eq i32 %34, 1
  br i1 %35, label %36, label %37

36:                                               ; preds = %29
  store i32 1, ptr %7, align 4
  store i32 1, ptr %16, align 4
  br label %69

37:                                               ; preds = %29
  br label %38

38:                                               ; preds = %37
  %39 = load ptr, ptr %8, align 8
  %40 = load i32, ptr %14, align 4
  %41 = sext i32 %40 to i64
  %42 = getelementptr inbounds %struct.FmgrInfo, ptr %39, i64 %41
  %43 = load ptr, ptr %9, align 8
  %44 = load i32, ptr %14, align 4
  %45 = sext i32 %44 to i64
  %46 = getelementptr inbounds i32, ptr %43, i64 %45
  %47 = load i32, ptr %46, align 4
  %48 = load ptr, ptr %10, align 8
  %49 = load i32, ptr %14, align 4
  %50 = sext i32 %49 to i64
  %51 = getelementptr inbounds i64, ptr %48, i64 %50
  %52 = load i64, ptr %51, align 8
  %53 = load ptr, ptr %12, align 8
  %54 = load i32, ptr %14, align 4
  %55 = sext i32 %54 to i64
  %56 = getelementptr inbounds i64, ptr %53, i64 %55
  %57 = load i64, ptr %56, align 8
  %58 = call i64 @FunctionCall2Coll(ptr noundef %42, i32 noundef %47, i64 noundef %52, i64 noundef %57)
  %59 = call i32 @DatumGetInt32(i64 noundef %58)
  store i32 %59, ptr %15, align 4
  %60 = load i32, ptr %15, align 4
  %61 = icmp ne i32 %60, 0
  br i1 %61, label %62, label %63

62:                                               ; preds = %38
  br label %67

63:                                               ; preds = %38
  br label %64

64:                                               ; preds = %63
  %65 = load i32, ptr %14, align 4
  %66 = add i32 %65, 1
  store i32 %66, ptr %14, align 4
  br label %17, !llvm.loop !45

67:                                               ; preds = %62, %17
  %68 = load i32, ptr %15, align 4
  store i32 %68, ptr %7, align 4
  store i32 1, ptr %16, align 4
  br label %69

69:                                               ; preds = %67, %36, %28
  call void @llvm.lifetime.end.p0(i64 4, ptr %15) #9
  call void @llvm.lifetime.end.p0(i64 4, ptr %14) #9
  %70 = load i32, ptr %7, align 4
  ret i32 %70
}

; Function Attrs: nounwind uwtable
define dso_local i32 @partition_range_datum_bsearch(ptr noundef %0, ptr noundef %1, ptr noundef %2, i32 noundef %3, ptr noundef %4, ptr noundef %5) #0 {
  %7 = alloca ptr, align 8
  %8 = alloca ptr, align 8
  %9 = alloca ptr, align 8
  %10 = alloca i32, align 4
  %11 = alloca ptr, align 8
  %12 = alloca ptr, align 8
  %13 = alloca i32, align 4
  %14 = alloca i32, align 4
  %15 = alloca i32, align 4
  %16 = alloca i32, align 4
  %17 = alloca i32, align 4
  store ptr %0, ptr %7, align 8
  store ptr %1, ptr %8, align 8
  store ptr %2, ptr %9, align 8
  store i32 %3, ptr %10, align 4
  store ptr %4, ptr %11, align 8
  store ptr %5, ptr %12, align 8
  call void @llvm.lifetime.start.p0(i64 4, ptr %13) #9
  call void @llvm.lifetime.start.p0(i64 4, ptr %14) #9
  call void @llvm.lifetime.start.p0(i64 4, ptr %15) #9
  store i32 -1, ptr %13, align 4
  %18 = load ptr, ptr %9, align 8
  %19 = getelementptr inbounds nuw %struct.PartitionBoundInfoData, ptr %18, i32 0, i32 1
  %20 = load i32, ptr %19, align 4
  %21 = sub i32 %20, 1
  store i32 %21, ptr %14, align 4
  br label %22

22:                                               ; preds = %70, %6
  %23 = load i32, ptr %13, align 4
  %24 = load i32, ptr %14, align 4
  %25 = icmp slt i32 %23, %24
  br i1 %25, label %26, label %71

26:                                               ; preds = %22
  call void @llvm.lifetime.start.p0(i64 4, ptr %16) #9
  %27 = load i32, ptr %13, align 4
  %28 = load i32, ptr %14, align 4
  %29 = add i32 %27, %28
  %30 = add i32 %29, 1
  %31 = sdiv i32 %30, 2
  store i32 %31, ptr %15, align 4
  %32 = load ptr, ptr %7, align 8
  %33 = load ptr, ptr %8, align 8
  %34 = load ptr, ptr %9, align 8
  %35 = getelementptr inbounds nuw %struct.PartitionBoundInfoData, ptr %34, i32 0, i32 2
  %36 = load ptr, ptr %35, align 8
  %37 = load i32, ptr %15, align 4
  %38 = sext i32 %37 to i64
  %39 = getelementptr inbounds ptr, ptr %36, i64 %38
  %40 = load ptr, ptr %39, align 8
  %41 = load ptr, ptr %9, align 8
  %42 = getelementptr inbounds nuw %struct.PartitionBoundInfoData, ptr %41, i32 0, i32 3
  %43 = load ptr, ptr %42, align 8
  %44 = load i32, ptr %15, align 4
  %45 = sext i32 %44 to i64
  %46 = getelementptr inbounds ptr, ptr %43, i64 %45
  %47 = load ptr, ptr %46, align 8
  %48 = load ptr, ptr %11, align 8
  %49 = load i32, ptr %10, align 4
  %50 = call i32 @partition_rbound_datum_cmp(ptr noundef %32, ptr noundef %33, ptr noundef %40, ptr noundef %47, ptr noundef %48, i32 noundef %49)
  store i32 %50, ptr %16, align 4
  %51 = load i32, ptr %16, align 4
  %52 = icmp sle i32 %51, 0
  br i1 %52, label %53, label %64

53:                                               ; preds = %26
  %54 = load i32, ptr %15, align 4
  store i32 %54, ptr %13, align 4
  %55 = load i32, ptr %16, align 4
  %56 = icmp eq i32 %55, 0
  %57 = load ptr, ptr %12, align 8
  %58 = zext i1 %56 to i8
  store i8 %58, ptr %57, align 1
  %59 = load ptr, ptr %12, align 8
  %60 = load i8, ptr %59, align 1, !range !6, !noundef !7
  %61 = trunc i8 %60 to i1
  br i1 %61, label %62, label %63

62:                                               ; preds = %53
  store i32 3, ptr %17, align 4
  br label %68

63:                                               ; preds = %53
  br label %67

64:                                               ; preds = %26
  %65 = load i32, ptr %15, align 4
  %66 = sub i32 %65, 1
  store i32 %66, ptr %14, align 4
  br label %67

67:                                               ; preds = %64, %63
  store i32 0, ptr %17, align 4
  br label %68

68:                                               ; preds = %67, %62
  call void @llvm.lifetime.end.p0(i64 4, ptr %16) #9
  %69 = load i32, ptr %17, align 4
  switch i32 %69, label %73 [
    i32 0, label %70
    i32 3, label %71
  ]

70:                                               ; preds = %68
  br label %22, !llvm.loop !46

71:                                               ; preds = %68, %22
  %72 = load i32, ptr %13, align 4
  store i32 1, ptr %17, align 4
  call void @llvm.lifetime.end.p0(i64 4, ptr %15) #9
  call void @llvm.lifetime.end.p0(i64 4, ptr %14) #9
  call void @llvm.lifetime.end.p0(i64 4, ptr %13) #9
  ret i32 %72

73:                                               ; preds = %68
  unreachable
}