; Function Attrs: nounwind uwtable
define dso_local range(i32 -1073741824, 1073741824) i32 @partition_range_datum_bsearch(ptr noundef %0, ptr noundef readonly captures(none) %1, ptr noundef readonly captures(none) %2, i32 noundef %3, ptr noundef readonly captures(none) %4, ptr noundef writeonly captures(none) %5) local_unnamed_addr #0 {
  %7 = getelementptr inbounds nuw i8, ptr %2, i64 4
  %8 = load i32, ptr %7, align 4
  %9 = add i32 %8, -1
  %10 = icmp sgt i32 %9, -1
  br i1 %10, label %.lr.ph, label %.loopexit

.lr.ph:                                           ; preds = %6
  %11 = getelementptr inbounds nuw i8, ptr %2, i64 8
  %12 = getelementptr inbounds nuw i8, ptr %2, i64 16
  %13 = icmp sgt i32 %3, 0
  %wide.trip.count.i = zext nneg i32 %3 to i64
  br i1 %13, label %.lr.ph.preheader.i.us, label %.lr.ph.split

.lr.ph.preheader.i.us:                            ; preds = %.lr.ph, %38
  %.02038.us = phi i32 [ %.2.us, %38 ], [ -1, %.lr.ph ]
  %.02137.us = phi i32 [ %.122.us, %38 ], [ %9, %.lr.ph ]
  %14 = add i32 %.02137.us, 1
  %15 = add i32 %14, %.02038.us
  %16 = sdiv i32 %15, 2
  %17 = load ptr, ptr %11, align 8
  %18 = sext i32 %16 to i64
  %19 = getelementptr inbounds ptr, ptr %17, i64 %18
  %20 = load ptr, ptr %19, align 8
  %21 = load ptr, ptr %12, align 8
  %22 = getelementptr inbounds ptr, ptr %21, i64 %18
  %23 = load ptr, ptr %22, align 8
  br label %.lr.ph.i.us

.lr.ph.i.us:                                      ; preds = %40, %.lr.ph.preheader.i.us
  %indvars.iv.i.us = phi i64 [ 0, %.lr.ph.preheader.i.us ], [ %indvars.iv.next.i.us, %40 ]
  %24 = getelementptr inbounds nuw i32, ptr %23, i64 %indvars.iv.i.us
  %25 = load i32, ptr %24, align 4
  switch i32 %25, label %26 [
    i32 -1, label %partition_rbound_datum_cmp.exit.thread.thread.us
    i32 1, label %partition_rbound_datum_cmp.exit.thread27.us
  ]

26:                                               ; preds = %.lr.ph.i.us
  %27 = getelementptr inbounds nuw %struct.FmgrInfo, ptr %0, i64 %indvars.iv.i.us
  %28 = getelementptr inbounds nuw i32, ptr %1, i64 %indvars.iv.i.us
  %29 = load i32, ptr %28, align 4
  %30 = getelementptr inbounds nuw i64, ptr %20, i64 %indvars.iv.i.us
  %31 = load i64, ptr %30, align 8
  %32 = getelementptr inbounds nuw i64, ptr %4, i64 %indvars.iv.i.us
  %33 = load i64, ptr %32, align 8
  %34 = tail call i64 @FunctionCall2Coll(ptr noundef %27, i32 noundef %29, i64 noundef %31, i64 noundef %33) #12
  %35 = trunc i64 %34 to i32
  %.not.i.us = icmp eq i32 %35, 0
  br i1 %.not.i.us, label %40, label %partition_rbound_datum_cmp.exit.us

partition_rbound_datum_cmp.exit.us:               ; preds = %26
  %36 = icmp slt i32 %35, 1
  br i1 %36, label %partition_rbound_datum_cmp.exit.thread.thread.us, label %partition_rbound_datum_cmp.exit.thread27.us

partition_rbound_datum_cmp.exit.thread27.us:      ; preds = %.lr.ph.i.us, %partition_rbound_datum_cmp.exit.us
  %37 = add nsw i32 %16, -1
  br label %38

partition_rbound_datum_cmp.exit.thread.thread.us: ; preds = %.lr.ph.i.us, %partition_rbound_datum_cmp.exit.us
  store i8 0, ptr %5, align 1
  br label %38

38:                                               ; preds = %partition_rbound_datum_cmp.exit.thread.thread.us, %partition_rbound_datum_cmp.exit.thread27.us
  %.122.us = phi i32 [ %37, %partition_rbound_datum_cmp.exit.thread27.us ], [ %.02137.us, %partition_rbound_datum_cmp.exit.thread.thread.us ]
  %.2.us = phi i32 [ %.02038.us, %partition_rbound_datum_cmp.exit.thread27.us ], [ %16, %partition_rbound_datum_cmp.exit.thread.thread.us ]
  %39 = icmp slt i32 %.2.us, %.122.us
  br i1 %39, label %.lr.ph.preheader.i.us, label %.loopexit

40:                                               ; preds = %26
  %indvars.iv.next.i.us = add nuw nsw i64 %indvars.iv.i.us, 1
  %exitcond.not.i.us = icmp eq i64 %indvars.iv.next.i.us, %wide.trip.count.i
  br i1 %exitcond.not.i.us, label %.thread, label %.lr.ph.i.us, !llvm.loop !48

.lr.ph.split:                                     ; preds = %.lr.ph
  store i8 0, ptr %5, align 1
  br label %partition_rbound_datum_cmp.exit.thread.thread

partition_rbound_datum_cmp.exit.thread.thread:    ; preds = %.lr.ph.split, %partition_rbound_datum_cmp.exit.thread.thread
  %.02038 = phi i32 [ -1, %.lr.ph.split ], [ %42, %partition_rbound_datum_cmp.exit.thread.thread ]
  %41 = add i32 %8, %.02038
  %42 = sdiv i32 %41, 2
  %43 = icmp slt i32 %42, %9
  br i1 %43, label %partition_rbound_datum_cmp.exit.thread.thread, label %.loopexit

.thread:                                          ; preds = %40
  store i8 1, ptr %5, align 1
  br label %.loopexit

.loopexit:                                        ; preds = %partition_rbound_datum_cmp.exit.thread.thread, %38, %6, %.thread
  %.1 = phi i32 [ %16, %.thread ], [ -1, %6 ], [ %.2.us, %38 ], [ %42, %partition_rbound_datum_cmp.exit.thread.thread ]
  ret i32 %.1
}